(dp0
Vinfo
p1
(lp2
I18
aVmethanol-acetate
p3
aVKBaseBiochem.Media-1.0
p4
aV2015-10-20T20:07:11+0000
p5
aI3
aVbking
p6
aI9145
aVbking:1438031465468
p7
aV573d9f9db2994f1ff341b804b0907bc8
p8
aI2362
a(dp9
asVcreated
p10
V2015-10-14T07:52:55+0000
p11
sVrefs
p12
(lp13
sVprovenance
p14
(lp15
sVcreator
p16
Vbking
p17
sVcopy_source_inaccessible
p18
I0
sVcopied
p19
V8730/40/1
p20
sVdata
p21
(dp22
Vname
p23
NsVtype
p24
Vbiolog
p25
sVisDefined
p26
I1
sVsource_id
p27
NsVisMinimal
p28
I0
sV__VERSION__
p29
I1
sVmediacompounds
p30
NsVid
p31
Vkb|media.760
p32
ssVextracted_ids
p33
(dp34
s.