(dp0
Vname
p1
VHs Medium (methanol-acetate)
p2
sVtype
p3
Vbiolog
p4
sVisDefined
p5
I1
sVsource_id
p6
VHs-medium
p7
sVisMinimal
p8
I0
sV__VERSION__
p9
I1
sVmediacompounds
p10
(lp11
(dp12
Vcompound_ref
p13
V489/6/1/compounds/id/cpd00239
p14
sVconcentration
p15
F0.001
sVmaxFlux
p16
I100
sVminFlux
p17
I-100
sa(dp18
Vcompound_ref
p19
V489/6/1/compounds/id/cpd00971
p20
sVconcentration
p21
F0.001
sVmaxFlux
p22
I100
sVminFlux
p23
I-100
sa(dp24
Vcompound_ref
p25
V489/6/1/compounds/id/cpd00099
p26
sVconcentration
p27
F0.001
sVmaxFlux
p28
I100
sVminFlux
p29
I-100
sa(dp30
Vcompound_ref
p31
V489/6/1/compounds/id/cpd00205
p32
sVconcentration
p33
F0.001
sVmaxFlux
p34
I100
sVminFlux
p35
I-100
sa(dp36
Vcompound_ref
p37
V489/6/1/compounds/id/cpd00084
p38
sVconcentration
p39
F0.001
sVmaxFlux
p40
I100
sVminFlux
p41
I-100
sa(dp42
Vcompound_ref
p43
V489/6/1/compounds/id/cpd00009
p44
sVconcentration
p45
F0.001
sVmaxFlux
p46
I100
sVminFlux
p47
I-100
sa(dp48
Vcompound_ref
p49
V489/6/1/compounds/id/cpd00013
p50
sVconcentration
p51
F0.001
sVmaxFlux
p52
I100
sVminFlux
p53
I-100
sa(dp54
Vcompound_ref
p55
V489/6/1/compounds/id/cpd00029
p56
sVconcentration
p57
F0.001
sVmaxFlux
p58
I100
sVminFlux
p59
I-100
sa(dp60
Vcompound_ref
p61
V489/6/1/compounds/id/cpd00116
p62
sVconcentration
p63
F0.001
sVmaxFlux
p64
I100
sVminFlux
p65
I-100
sa(dp66
Vcompound_ref
p67
V489/6/1/compounds/id/cpd04877
p68
sVconcentration
p69
F0.001
sVmaxFlux
p70
I100
sVminFlux
p71
I-100
sa(dp72
Vcompound_ref
p73
V489/6/1/compounds/id/cpd05098
p74
sVconcentration
p75
F0.001
sVmaxFlux
p76
I100
sVminFlux
p77
I-100
sa(dp78
Vcompound_ref
p79
V489/6/1/compounds/id/cpd08053
p80
sVconcentration
p81
F0.001
sVmaxFlux
p82
I100
sVminFlux
p83
I-100
sa(dp84
Vcompound_ref
p85
V489/6/1/compounds/id/cpd09249
p86
sVconcentration
p87
F0.001
sVmaxFlux
p88
I100
sVminFlux
p89
I-100
sa(dp90
Vcompound_ref
p91
V489/6/1/compounds/id/cpd00067
p92
sVconcentration
p93
F0.001
sVmaxFlux
p94
I100
sVminFlux
p95
I-100
sasVid
p96
Vkb|media.760
p97
s.